; Function Attrs: mustprogress nofree norecurse nosync nounwind willreturn memory(argmem: write) uwtable
define void @_ZN3net10QuicFramer12AckFrameInfoC2Ev(ptr noundef nonnull align 8 dereferenceable(56) initializes((0, 8), (16, 20), (24, 32)) %0) unnamed_addr #10 align 2 personality ptr @__gxx_personality_v0 {
  store i64 0, ptr %0, align 8, !tbaa !109
  %2 = getelementptr inbounds nuw i8, ptr %0, i64 16
  store i32 0, ptr %2, align 8, !tbaa !120
  %3 = getelementptr inbounds nuw i8, ptr %0, i64 24
  store ptr null, ptr %3, align 8, !tbaa !121
  %4 = getelementptr inbounds nuw i8, ptr %0, i64 32
  store ptr %2, ptr %4, align 8, !tbaa !122
  %5 = getelementptr inbounds nuw i8, ptr %0, i64 40
  store ptr %2, ptr %5, align 8, !tbaa !123
  %6 = getelementptr inbounds nuw i8, ptr %0, i64 48
  store i64 0, ptr %6, align 8, !tbaa !124
  ret void
}